; Function Attrs: nounwind uwtable
define void @duckdb_je_sec_stats_merge(ptr noundef %0, ptr noundef readonly captures(none) %1, ptr noundef captures(none) %2) local_unnamed_addr #0 {
  %4 = getelementptr inbounds nuw i8, ptr %1, i64 64
  %5 = load i64, ptr %4, align 8, !tbaa !40
  %.not = icmp eq i64 %5, 0
  br i1 %.not, label %._crit_edge, label %.lr.ph

.lr.ph:                                           ; preds = %3
  %6 = getelementptr inbounds nuw i8, ptr %1, i64 104
  br label %9

._crit_edge:                                      ; preds = %malloc_mutex_lock.exit, %3
  %.013.lcssa = phi i64 [ 0, %3 ], [ %30, %malloc_mutex_lock.exit ]
  %7 = load i64, ptr %2, align 8, !tbaa !63
  %8 = add i64 %7, %.013.lcssa
  store i64 %8, ptr %2, align 8, !tbaa !63
  ret void

9:                                                ; preds = %.lr.ph, %malloc_mutex_lock.exit
  %.015 = phi i64 [ 0, %.lr.ph ], [ %34, %malloc_mutex_lock.exit ]
  %.01314 = phi i64 [ 0, %.lr.ph ], [ %30, %malloc_mutex_lock.exit ]
  %10 = load ptr, ptr %6, align 8, !tbaa !10
  %11 = getelementptr inbounds nuw %struct.sec_shard_s, ptr %10, i64 %.015
  %12 = getelementptr inbounds nuw i8, ptr %11, i64 72
  %13 = tail call i32 @pthread_mutex_trylock(ptr noundef nonnull %12) #9
  %.not.i = icmp eq i32 %13, 0
  br i1 %.not.i, label %16, label %14

14:                                               ; preds = %9
  tail call void @duckdb_je_malloc_mutex_lock_slow(ptr noundef nonnull %11) #9
  %15 = getelementptr inbounds nuw i8, ptr %11, i64 64
  store atomic i8 1, ptr %15 monotonic, align 1
  br label %16

16:                                               ; preds = %14, %9
  %17 = getelementptr inbounds nuw i8, ptr %11, i64 56
  %18 = load i64, ptr %17, align 8, !tbaa !44
  %19 = add i64 %18, 1
  store i64 %19, ptr %17, align 8, !tbaa !44
  %20 = getelementptr inbounds nuw i8, ptr %11, i64 48
  %21 = load ptr, ptr %20, align 8, !tbaa !49
  %.not.i.i = icmp eq ptr %21, %0
  br i1 %.not.i.i, label %malloc_mutex_lock.exit, label %22

22:                                               ; preds = %16
  store ptr %0, ptr %20, align 8, !tbaa !49
  %23 = getelementptr inbounds nuw i8, ptr %11, i64 40
  %24 = load i64, ptr %23, align 8, !tbaa !50
  %25 = add i64 %24, 1
  store i64 %25, ptr %23, align 8, !tbaa !50
  br label %malloc_mutex_lock.exit

malloc_mutex_lock.exit:                           ; preds = %16, %22
  %26 = load ptr, ptr %6, align 8, !tbaa !10
  %27 = getelementptr inbounds nuw %struct.sec_shard_s, ptr %26, i64 %.015
  %28 = getelementptr inbounds nuw i8, ptr %27, i64 128
  %29 = load i64, ptr %28, align 8, !tbaa !28
  %30 = add i64 %29, %.01314
  %31 = getelementptr inbounds nuw i8, ptr %27, i64 64
  store atomic i8 0, ptr %31 monotonic, align 1
  %32 = getelementptr inbounds nuw i8, ptr %27, i64 72
  %33 = tail call i32 @pthread_mutex_unlock(ptr noundef nonnull %32) #9
  %34 = add nuw i64 %.015, 1
  %35 = load i64, ptr %4, align 8, !tbaa !40
  %36 = icmp ult i64 %34, %35
  br i1 %36, label %9, label %._crit_edge
}